; Function Attrs: mustprogress uwtable
define hidden void @_ZN4cvc58internal4prop10PropEngine4pushEv(ptr noundef nonnull readonly align 8 captures(none) dereferenceable(416) %0) local_unnamed_addr #4 align 2 personality ptr @__gxx_personality_v0 {
  %2 = getelementptr inbounds nuw i8, ptr %0, i64 48
  %3 = load ptr, ptr %2, align 8, !tbaa !271
  %4 = load ptr, ptr %3, align 8, !tbaa !3
  %5 = getelementptr inbounds nuw i8, ptr %4, i64 152
  %6 = load ptr, ptr %5, align 8
  tail call void %6(ptr noundef nonnull align 8 dereferenceable(8) %3)
  ret void
}